; Function Attrs: mustprogress uwtable
define void @_ZN6colvar3cvc16init_as_distanceEv(ptr noundef nonnull align 8 dereferenceable(1648) %0) local_unnamed_addr #1 align 2 personality ptr @__gxx_personality_v0 {
  %2 = alloca i32, align 4
  %3 = alloca i32, align 4
  %4 = alloca %"class.std::__cxx11::basic_string", align 8
  %5 = alloca %"class.std::allocator.28", align 1
  %6 = getelementptr inbounds i8, ptr %0, i64 632
  store i32 1, ptr %2, align 4
  call void @_ZN11colvarvalue4typeERKNS_4TypeE(ptr noundef nonnull align 8 dereferenceable(168) %6, ptr noundef nonnull align 4 dereferenceable(4) %2)
  %7 = getelementptr inbounds i8, ptr %0, i64 320
  %8 = call noundef i32 @_ZN10colvardeps6enableEibb(ptr noundef nonnull align 8 dereferenceable(120) %7, i32 noundef 4, i1 noundef zeroext false, i1 noundef zeroext true)
  %9 = getelementptr inbounds i8, ptr %0, i64 1304
  store i32 1, ptr %3, align 4
  call void @_ZN11colvarvalue4typeERKNS_4TypeE(ptr noundef nonnull align 8 dereferenceable(168) %9, ptr noundef nonnull align 4 dereferenceable(4) %3)
  %10 = getelementptr inbounds i8, ptr %0, i64 1312
  store double 0.000000e+00, ptr %10, align 8
  call void @_ZNSaIcEC1Ev(ptr noundef nonnull align 1 dereferenceable(1) %5) #27
  %11 = invoke noundef ptr @_ZNSt7__cxx1112basic_stringIcSt11char_traitsIcESaIcEE13_M_local_dataEv(ptr noundef nonnull align 8 dereferenceable(32) %4)
          to label %.noexc unwind label %15

.noexc:                                           ; preds = %1
  invoke void @_ZNSt7__cxx1112basic_stringIcSt11char_traitsIcESaIcEE12_Alloc_hiderC1EPcRKS3_(ptr noundef nonnull align 8 dereferenceable(8) %4, ptr noundef %11, ptr noundef nonnull align 1 dereferenceable(1) %5)
          to label %.noexc4 unwind label %15

.noexc4:                                          ; preds = %.noexc
  invoke void @_ZNSt7__cxx1112basic_stringIcSt11char_traitsIcESaIcEE12_M_constructIPKcEEvT_S8_St20forward_iterator_tag(ptr noundef nonnull align 8 dereferenceable(32) %4, ptr noundef nonnull @.str.56, ptr noundef nonnull getelementptr inbounds ([14 x i8], ptr @.str.56, i64 0, i64 13))
          to label %_ZNSt7__cxx1112basic_stringIcSt11char_traitsIcESaIcEEC2IS3_EEPKcRKS3_.exit unwind label %12

12:                                               ; preds = %.noexc4
  %13 = landingpad { ptr, i32 }
          cleanup
  call void @_ZNSaIcED2Ev(ptr noundef nonnull align 1 dereferenceable(1) %4) #27
  br label %.body

_ZNSt7__cxx1112basic_stringIcSt11char_traitsIcESaIcEEC2IS3_EEPKcRKS3_.exit: ; preds = %.noexc4
  invoke void @_ZN12colvarparams14register_paramERKNSt7__cxx1112basic_stringIcSt11char_traitsIcESaIcEEEPv(ptr noundef nonnull align 8 dereferenceable(104) %0, ptr noundef nonnull align 8 dereferenceable(32) %4, ptr noundef nonnull %9)
          to label %14 unwind label %17

14:                                               ; preds = %_ZNSt7__cxx1112basic_stringIcSt11char_traitsIcESaIcEEC2IS3_EEPKcRKS3_.exit
  call void @_ZNSt7__cxx1112basic_stringIcSt11char_traitsIcESaIcEED1Ev(ptr noundef nonnull align 8 dereferenceable(32) %4) #27
  call void @_ZNSaIcED1Ev(ptr noundef nonnull align 1 dereferenceable(1) %5) #27
  ret void

15:                                               ; preds = %.noexc, %1
  %16 = landingpad { ptr, i32 }
          cleanup
  br label %.body

17:                                               ; preds = %_ZNSt7__cxx1112basic_stringIcSt11char_traitsIcESaIcEEC2IS3_EEPKcRKS3_.exit
  %18 = landingpad { ptr, i32 }
          cleanup
  call void @_ZNSt7__cxx1112basic_stringIcSt11char_traitsIcESaIcEED1Ev(ptr noundef nonnull align 8 dereferenceable(32) %4) #27
  br label %.body

.body:                                            ; preds = %15, %12, %17
  %.pn = phi { ptr, i32 } [ %18, %17 ], [ %16, %15 ], [ %13, %12 ]
  call void @_ZNSaIcED1Ev(ptr noundef nonnull align 1 dereferenceable(1) %5) #27
  resume { ptr, i32 } %.pn
}